target datalayout = "e-m:e-p270:32:32-p271:32:32-p272:64:64-i64:64-i128:128-f80:128-n8:16:32:64-S128"
target triple = "x86_64-pc-linux-gnu"

%struct.GENERAL_SUBTREE_st = type { ptr, ptr, ptr }
%struct.GENERAL_NAME_st = type { i32, %union.anon }
%union.anon = type { ptr }
%struct.asn1_string_st = type { i32, i32, ptr, i64 }

@.str.13 = private unnamed_addr constant [8 x i8] c"%*s%s:\0A\00", align 1
@.str.14 = private unnamed_addr constant [1 x i8] zeroinitializer, align 1
@.str.15 = private unnamed_addr constant [4 x i8] c"%*s\00", align 1
@.str.16 = private unnamed_addr constant [2 x i8] c"\0A\00", align 1
@.str.17 = private unnamed_addr constant [4 x i8] c"IP:\00", align 1
@.str.18 = private unnamed_addr constant [24 x i8] c"%d.%d.%d.%d/%d.%d.%d.%d\00", align 1
@.str.19 = private unnamed_addr constant [3 x i8] c"%X\00", align 1
@.str.20 = private unnamed_addr constant [2 x i8] c"/\00", align 1
@.str.21 = private unnamed_addr constant [2 x i8] c":\00", align 1
@.str.22 = private unnamed_addr constant [21 x i8] c"IP Address:<invalid>\00", align 1

; Function Attrs: nounwind uwtable
define internal i32 @print_nc_ipadd(ptr noundef %0, ptr noundef %1) #0 {
  %3 = alloca ptr, align 8
  %4 = alloca ptr, align 8
  %5 = alloca i32, align 4
  %6 = alloca i32, align 4
  %7 = alloca ptr, align 8
  store ptr %0, ptr %3, align 8, !tbaa !39
  store ptr %1, ptr %4, align 8, !tbaa !75
  call void @llvm.lifetime.start.p0(i64 4, ptr %5) #4
  call void @llvm.lifetime.start.p0(i64 4, ptr %6) #4
  call void @llvm.lifetime.start.p0(i64 8, ptr %7) #4
  %8 = load ptr, ptr %4, align 8, !tbaa !75
  %9 = getelementptr inbounds nuw %struct.asn1_string_st, ptr %8, i32 0, i32 2
  %10 = load ptr, ptr %9, align 8, !tbaa !76
  store ptr %10, ptr %7, align 8, !tbaa !73
  %11 = load ptr, ptr %4, align 8, !tbaa !75
  %12 = getelementptr inbounds nuw %struct.asn1_string_st, ptr %11, i32 0, i32 0
  %13 = load i32, ptr %12, align 8, !tbaa !77
  store i32 %13, ptr %6, align 4, !tbaa !41
  %14 = load ptr, ptr %3, align 8, !tbaa !39
  %15 = call i32 @BIO_puts(ptr noundef %14, ptr noundef @.str.17)
  %16 = load i32, ptr %6, align 4, !tbaa !41
  %17 = icmp eq i32 %16, 8
  br i1 %17, label %18, label %53

18:                                               ; preds = %2
  %19 = load ptr, ptr %3, align 8, !tbaa !39
  %20 = load ptr, ptr %7, align 8, !tbaa !73
  %21 = getelementptr inbounds i8, ptr %20, i64 0
  %22 = load i8, ptr %21, align 1, !tbaa !28
  %23 = zext i8 %22 to i32
  %24 = load ptr, ptr %7, align 8, !tbaa !73
  %25 = getelementptr inbounds i8, ptr %24, i64 1
  %26 = load i8, ptr %25, align 1, !tbaa !28
  %27 = zext i8 %26 to i32
  %28 = load ptr, ptr %7, align 8, !tbaa !73
  %29 = getelementptr inbounds i8, ptr %28, i64 2
  %30 = load i8, ptr %29, align 1, !tbaa !28
  %31 = zext i8 %30 to i32
  %32 = load ptr, ptr %7, align 8, !tbaa !73
  %33 = getelementptr inbounds i8, ptr %32, i64 3
  %34 = load i8, ptr %33, align 1, !tbaa !28
  %35 = zext i8 %34 to i32
  %36 = load ptr, ptr %7, align 8, !tbaa !73
  %37 = getelementptr inbounds i8, ptr %36, i64 4
  %38 = load i8, ptr %37, align 1, !tbaa !28
  %39 = zext i8 %38 to i32
  %40 = load ptr, ptr %7, align 8, !tbaa !73
  %41 = getelementptr inbounds i8, ptr %40, i64 5
  %42 = load i8, ptr %41, align 1, !tbaa !28
  %43 = zext i8 %42 to i32
  %44 = load ptr, ptr %7, align 8, !tbaa !73
  %45 = getelementptr inbounds i8, ptr %44, i64 6
  %46 = load i8, ptr %45, align 1, !tbaa !28
  %47 = zext i8 %46 to i32
  %48 = load ptr, ptr %7, align 8, !tbaa !73
  %49 = getelementptr inbounds i8, ptr %48, i64 7
  %50 = load i8, ptr %49, align 1, !tbaa !28
  %51 = zext i8 %50 to i32
  %52 = call i32 (ptr, ptr, ...) @BIO_printf(ptr noundef %19, ptr noundef @.str.18, i32 noundef %23, i32 noundef %27, i32 noundef %31, i32 noundef %35, i32 noundef %39, i32 noundef %43, i32 noundef %47, i32 noundef %51)
  br label %96

53:                                               ; preds = %2
  %54 = load i32, ptr %6, align 4, !tbaa !41
  %55 = icmp eq i32 %54, 32
  br i1 %55, label %56, label %92

56:                                               ; preds = %53
  store i32 0, ptr %5, align 4, !tbaa !41
  br label %57

57:                                               ; preds = %88, %56
  %58 = load i32, ptr %5, align 4, !tbaa !41
  %59 = icmp slt i32 %58, 16
  br i1 %59, label %60, label %91

60:                                               ; preds = %57
  %61 = load ptr, ptr %3, align 8, !tbaa !39
  %62 = load ptr, ptr %7, align 8, !tbaa !73
  %63 = getelementptr inbounds i8, ptr %62, i64 0
  %64 = load i8, ptr %63, align 1, !tbaa !28
  %65 = zext i8 %64 to i32
  %66 = shl i32 %65, 8
  %67 = load ptr, ptr %7, align 8, !tbaa !73
  %68 = getelementptr inbounds i8, ptr %67, i64 1
  %69 = load i8, ptr %68, align 1, !tbaa !28
  %70 = zext i8 %69 to i32
  %71 = or i32 %66, %70
  %72 = call i32 (ptr, ptr, ...) @BIO_printf(ptr noundef %61, ptr noundef @.str.19, i32 noundef %71)
  %73 = load ptr, ptr %7, align 8, !tbaa !73
  %74 = getelementptr inbounds i8, ptr %73, i64 2
  store ptr %74, ptr %7, align 8, !tbaa !73
  %75 = load i32, ptr %5, align 4, !tbaa !41
  %76 = icmp eq i32 %75, 7
  br i1 %76, label %77, label %80

77:                                               ; preds = %60
  %78 = load ptr, ptr %3, align 8, !tbaa !39
  %79 = call i32 @BIO_puts(ptr noundef %78, ptr noundef @.str.20)
  br label %87

80:                                               ; preds = %60
  %81 = load i32, ptr %5, align 4, !tbaa !41
  %82 = icmp ne i32 %81, 15
  br i1 %82, label %83, label %86

83:                                               ; preds = %80
  %84 = load ptr, ptr %3, align 8, !tbaa !39
  %85 = call i32 @BIO_puts(ptr noundef %84, ptr noundef @.str.21)
  br label %86

86:                                               ; preds = %83, %80
  br label %87

87:                                               ; preds = %86, %77
  br label %88

88:                                               ; preds = %87
  %89 = load i32, ptr %5, align 4, !tbaa !41
  %90 = add nsw i32 %89, 1
  store i32 %90, ptr %5, align 4, !tbaa !41
  br label %57, !llvm.loop !78

91:                                               ; preds = %57
  br label %95

92:                                               ; preds = %53
  %93 = load ptr, ptr %3, align 8, !tbaa !39
  %94 = call i32 (ptr, ptr, ...) @BIO_printf(ptr noundef %93, ptr noundef @.str.22)
  br label %95

95:                                               ; preds = %92, %91
  br label %96

96:                                               ; preds = %95, %18
  call void @llvm.lifetime.end.p0(i64 8, ptr %7) #4
  call void @llvm.lifetime.end.p0(i64 4, ptr %6) #4
  call void @llvm.lifetime.end.p0(i64 4, ptr %5) #4
  ret i32 1
}

; Function Attrs: nounwind uwtable
define internal i32 @do_i2r_name_constraints(ptr noundef %0, ptr noundef %1, ptr noundef %2, i32 noundef %3, ptr noundef %4) #0 {
  %6 = alloca ptr, align 8
  %7 = alloca ptr, align 8
  %8 = alloca ptr, align 8
  %9 = alloca i32, align 4
  %10 = alloca ptr, align 8
  %11 = alloca ptr, align 8
  %12 = alloca i64, align 8
  store ptr %0, ptr %6, align 8, !tbaa !6
  store ptr %1, ptr %7, align 8, !tbaa !34
  store ptr %2, ptr %8, align 8, !tbaa !39
  store i32 %3, ptr %9, align 4, !tbaa !41
  store ptr %4, ptr %10, align 8, !tbaa !73
  call void @llvm.lifetime.start.p0(i64 8, ptr %11) #4
  call void @llvm.lifetime.start.p0(i64 8, ptr %12) #4
  %13 = load ptr, ptr %7, align 8, !tbaa !34
  %14 = call i64 @sk_num(ptr noundef %13)
  %15 = icmp ugt i64 %14, 0
  br i1 %15, label %16, label %21

16:                                               ; preds = %5
  %17 = load ptr, ptr %8, align 8, !tbaa !39
  %18 = load i32, ptr %9, align 4, !tbaa !41
  %19 = load ptr, ptr %10, align 8, !tbaa !73
  %20 = call i32 (ptr, ptr, ...) @BIO_printf(ptr noundef %17, ptr noundef @.str.13, i32 noundef %18, ptr noundef @.str.14, ptr noundef %19)
  br label %21

21:                                               ; preds = %16, %5
  store i64 0, ptr %12, align 8, !tbaa !21
  br label %22

22:                                               ; preds = %58, %21
  %23 = load i64, ptr %12, align 8, !tbaa !21
  %24 = load ptr, ptr %7, align 8, !tbaa !34
  %25 = call i64 @sk_num(ptr noundef %24)
  %26 = icmp ult i64 %23, %25
  br i1 %26, label %27, label %61

27:                                               ; preds = %22
  %28 = load ptr, ptr %7, align 8, !tbaa !34
  %29 = load i64, ptr %12, align 8, !tbaa !21
  %30 = call ptr @sk_value(ptr noundef %28, i64 noundef %29)
  store ptr %30, ptr %11, align 8, !tbaa !19
  %31 = load ptr, ptr %8, align 8, !tbaa !39
  %32 = load i32, ptr %9, align 4, !tbaa !41
  %33 = add nsw i32 %32, 2
  %34 = call i32 (ptr, ptr, ...) @BIO_printf(ptr noundef %31, ptr noundef @.str.15, i32 noundef %33, ptr noundef @.str.14)
  %35 = load ptr, ptr %11, align 8, !tbaa !19
  %36 = getelementptr inbounds nuw %struct.GENERAL_SUBTREE_st, ptr %35, i32 0, i32 0
  %37 = load ptr, ptr %36, align 8, !tbaa !30
  %38 = getelementptr inbounds nuw %struct.GENERAL_NAME_st, ptr %37, i32 0, i32 0
  %39 = load i32, ptr %38, align 8, !tbaa !50
  %40 = icmp eq i32 %39, 7
  br i1 %40, label %41, label %49

41:                                               ; preds = %27
  %42 = load ptr, ptr %8, align 8, !tbaa !39
  %43 = load ptr, ptr %11, align 8, !tbaa !19
  %44 = getelementptr inbounds nuw %struct.GENERAL_SUBTREE_st, ptr %43, i32 0, i32 0
  %45 = load ptr, ptr %44, align 8, !tbaa !30
  %46 = getelementptr inbounds nuw %struct.GENERAL_NAME_st, ptr %45, i32 0, i32 1
  %47 = load ptr, ptr %46, align 8, !tbaa !28
  %48 = call i32 @print_nc_ipadd(ptr noundef %42, ptr noundef %47)
  br label %55

49:                                               ; preds = %27
  %50 = load ptr, ptr %8, align 8, !tbaa !39
  %51 = load ptr, ptr %11, align 8, !tbaa !19
  %52 = getelementptr inbounds nuw %struct.GENERAL_SUBTREE_st, ptr %51, i32 0, i32 0
  %53 = load ptr, ptr %52, align 8, !tbaa !30
  %54 = call i32 @GENERAL_NAME_print(ptr noundef %50, ptr noundef %53)
  br label %55

55:                                               ; preds = %49, %41
  %56 = load ptr, ptr %8, align 8, !tbaa !39
  %57 = call i32 @BIO_puts(ptr noundef %56, ptr noundef @.str.16)
  br label %58

58:                                               ; preds = %55
  %59 = load i64, ptr %12, align 8, !tbaa !21
  %60 = add i64 %59, 1
  store i64 %60, ptr %12, align 8, !tbaa !21
  br label %22, !llvm.loop !74

61:                                               ; preds = %22
  call void @llvm.lifetime.end.p0(i64 8, ptr %12) #4
  call void @llvm.lifetime.end.p0(i64 8, ptr %11) #4
  ret i32 1
}