; Function Attrs: nounwind uwtable
define internal fastcc void @do_i2r_name_constraints(ptr noundef %0, ptr noundef %1, i32 noundef %2, ptr noundef %3) unnamed_addr #0 {
  %5 = tail call i64 @sk_num(ptr noundef %0) #6
  %.not = icmp eq i64 %5, 0
  br i1 %.not, label %8, label %6

6:                                                ; preds = %4
  %7 = tail call i32 (ptr, ptr, ...) @BIO_printf(ptr noundef %1, ptr noundef nonnull @.str.13, i32 noundef %2, ptr noundef nonnull @.str.14, ptr noundef %3) #6
  br label %8

8:                                                ; preds = %6, %4
  %9 = tail call i64 @sk_num(ptr noundef %0) #6
  %.not2 = icmp eq i64 %9, 0
  br i1 %.not2, label %._crit_edge, label %.lr.ph

.lr.ph:                                           ; preds = %8
  %10 = add nsw i32 %2, 2
  br label %11

11:                                               ; preds = %.lr.ph, %print_nc_ipadd.exit
  %.01 = phi i64 [ 0, %.lr.ph ], [ %65, %print_nc_ipadd.exit ]
  %12 = tail call ptr @sk_value(ptr noundef %0, i64 noundef %.01) #6
  %13 = tail call i32 (ptr, ptr, ...) @BIO_printf(ptr noundef %1, ptr noundef nonnull @.str.15, i32 noundef %10, ptr noundef nonnull @.str.14) #6
  %14 = load ptr, ptr %12, align 8, !tbaa !16
  %15 = load i32, ptr %14, align 8, !tbaa !25
  %16 = icmp eq i32 %15, 7
  br i1 %16, label %17, label %62

17:                                               ; preds = %11
  %18 = getelementptr inbounds nuw i8, ptr %14, i64 8
  %19 = load ptr, ptr %18, align 8, !tbaa !14
  %.val = load i32, ptr %19, align 8, !tbaa !48
  %20 = getelementptr i8, ptr %19, i64 8
  %.val16 = load ptr, ptr %20, align 8, !tbaa !49
  %21 = tail call i32 @BIO_puts(ptr noundef %1, ptr noundef nonnull @.str.17) #6
  switch i32 %.val, label %60 [
    i32 8, label %22
    i32 32, label %.preheader.i
  ]

22:                                               ; preds = %17
  %23 = load i8, ptr %.val16, align 1, !tbaa !14
  %24 = zext i8 %23 to i32
  %25 = getelementptr inbounds nuw i8, ptr %.val16, i64 1
  %26 = load i8, ptr %25, align 1, !tbaa !14
  %27 = zext i8 %26 to i32
  %28 = getelementptr inbounds nuw i8, ptr %.val16, i64 2
  %29 = load i8, ptr %28, align 1, !tbaa !14
  %30 = zext i8 %29 to i32
  %31 = getelementptr inbounds nuw i8, ptr %.val16, i64 3
  %32 = load i8, ptr %31, align 1, !tbaa !14
  %33 = zext i8 %32 to i32
  %34 = getelementptr inbounds nuw i8, ptr %.val16, i64 4
  %35 = load i8, ptr %34, align 1, !tbaa !14
  %36 = zext i8 %35 to i32
  %37 = getelementptr inbounds nuw i8, ptr %.val16, i64 5
  %38 = load i8, ptr %37, align 1, !tbaa !14
  %39 = zext i8 %38 to i32
  %40 = getelementptr inbounds nuw i8, ptr %.val16, i64 6
  %41 = load i8, ptr %40, align 1, !tbaa !14
  %42 = zext i8 %41 to i32
  %43 = getelementptr inbounds nuw i8, ptr %.val16, i64 7
  %44 = load i8, ptr %43, align 1, !tbaa !14
  %45 = zext i8 %44 to i32
  %46 = tail call i32 (ptr, ptr, ...) @BIO_printf(ptr noundef %1, ptr noundef nonnull @.str.18, i32 noundef %24, i32 noundef %27, i32 noundef %30, i32 noundef %33, i32 noundef %36, i32 noundef %39, i32 noundef %42, i32 noundef %45) #6
  br label %print_nc_ipadd.exit

.preheader.i:                                     ; preds = %17, %57
  %.02.i = phi ptr [ %55, %57 ], [ %.val16, %17 ]
  %.0241.i = phi i32 [ %59, %57 ], [ 0, %17 ]
  %47 = load i8, ptr %.02.i, align 1, !tbaa !14
  %48 = zext i8 %47 to i32
  %49 = shl nuw nsw i32 %48, 8
  %50 = getelementptr inbounds nuw i8, ptr %.02.i, i64 1
  %51 = load i8, ptr %50, align 1, !tbaa !14
  %52 = zext i8 %51 to i32
  %53 = or disjoint i32 %49, %52
  %54 = tail call i32 (ptr, ptr, ...) @BIO_printf(ptr noundef %1, ptr noundef nonnull @.str.19, i32 noundef %53) #6
  %55 = getelementptr inbounds nuw i8, ptr %.02.i, i64 2
  switch i32 %.0241.i, label %56 [
    i32 7, label %57
    i32 15, label %print_nc_ipadd.exit
  ]

56:                                               ; preds = %.preheader.i
  br label %57

57:                                               ; preds = %56, %.preheader.i
  %.str.20.sink.i = phi ptr [ @.str.21, %56 ], [ @.str.20, %.preheader.i ]
  %58 = tail call i32 @BIO_puts(ptr noundef %1, ptr noundef nonnull %.str.20.sink.i) #6
  %59 = add nuw nsw i32 %.0241.i, 1
  br label %.preheader.i

60:                                               ; preds = %17
  %61 = tail call i32 (ptr, ptr, ...) @BIO_printf(ptr noundef %1, ptr noundef nonnull @.str.22) #6
  br label %print_nc_ipadd.exit

62:                                               ; preds = %11
  %63 = tail call i32 @GENERAL_NAME_print(ptr noundef %1, ptr noundef nonnull %14) #6
  br label %print_nc_ipadd.exit

print_nc_ipadd.exit:                              ; preds = %.preheader.i, %60, %22, %62
  %64 = tail call i32 @BIO_puts(ptr noundef %1, ptr noundef nonnull @.str.16) #6
  %65 = add nuw i64 %.01, 1
  %66 = tail call i64 @sk_num(ptr noundef %0) #6
  %67 = icmp ult i64 %65, %66
  br i1 %67, label %11, label %._crit_edge, !llvm.loop !50

._crit_edge:                                      ; preds = %print_nc_ipadd.exit, %8
  ret void
}